; Function Attrs: nounwind uwtable
define dso_local ptr @ResourceOwnerCreate(ptr noundef %0, ptr noundef %1) local_unnamed_addr #0 {
  %3 = load ptr, ptr @TopMemoryContext, align 8
  %4 = tail call ptr @MemoryContextAllocZero(ptr noundef %3, i64 noundef 688) #10
  %5 = getelementptr inbounds nuw i8, ptr %4, i64 24
  store ptr %1, ptr %5, align 8
  %.not = icmp eq ptr %0, null
  br i1 %.not, label %10, label %6

6:                                                ; preds = %2
  store ptr %0, ptr %4, align 8
  %7 = getelementptr inbounds nuw i8, ptr %0, i64 8
  %8 = load ptr, ptr %7, align 8
  %9 = getelementptr inbounds nuw i8, ptr %4, i64 16
  store ptr %8, ptr %9, align 8
  store ptr %4, ptr %7, align 8
  br label %10

10:                                               ; preds = %6, %2
  ret ptr %4
}